target datalayout = "e-m:e-p270:32:32-p271:32:32-p272:64:64-i64:64-i128:128-f80:128-n8:16:32:64-S128"
target triple = "x86_64-pc-linux-gnu"

%struct.FT_ListRec_ = type { ptr, ptr }
%struct.FT_Vector_ = type { i64, i64 }
%struct.FT_LibraryRec_ = type { ptr, i32, i32, i32, i32, [32 x ptr], %struct.FT_ListRec_, ptr, ptr, [4 x ptr], [3 x %struct.FT_Vector_], i32 }

; Function Attrs: nounwind uwtable
define i32 @FT_Done_MM_Var(ptr noundef %0, ptr noundef %1) #0 {
  %3 = alloca i32, align 4
  %4 = alloca ptr, align 8
  %5 = alloca ptr, align 8
  %6 = alloca ptr, align 8
  store ptr %0, ptr %4, align 8
  store ptr %1, ptr %5, align 8
  %7 = load ptr, ptr %4, align 8
  %8 = icmp ne ptr %7, null
  br i1 %8, label %10, label %9

9:                                                ; preds = %2
  store i32 33, ptr %3, align 4
  br label %18

10:                                               ; preds = %2
  %11 = load ptr, ptr %4, align 8
  %12 = getelementptr inbounds %struct.FT_LibraryRec_, ptr %11, i32 0, i32 0
  %13 = load ptr, ptr %12, align 8
  store ptr %13, ptr %6, align 8
  br label %14

14:                                               ; preds = %10
  %15 = load ptr, ptr %6, align 8
  %16 = load ptr, ptr %5, align 8
  call void @ft_mem_free(ptr noundef %15, ptr noundef %16)
  store ptr null, ptr %5, align 8
  br label %17

17:                                               ; preds = %14
  store i32 0, ptr %3, align 4
  br label %18

18:                                               ; preds = %17, %9
  %19 = load i32, ptr %3, align 4
  ret i32 %19
}