; Function Attrs: nounwind uwtable
define range(i32 0, 34) i32 @FT_Done_MM_Var(ptr noundef readonly %0, ptr noundef %1) local_unnamed_addr #0 {
  %.not = icmp eq ptr %0, null
  br i1 %.not, label %5, label %3

3:                                                ; preds = %2
  %4 = load ptr, ptr %0, align 8
  tail call void @ft_mem_free(ptr noundef %4, ptr noundef %1) #3
  br label %5

5:                                                ; preds = %2, %3
  %.0 = phi i32 [ 0, %3 ], [ 33, %2 ]
  ret i32 %.0
}